target datalayout = "e-m:e-p270:32:32-p271:32:32-p272:64:64-i64:64-i128:128-f80:128-n8:16:32:64-S128"
target triple = "x86_64-pc-linux-gnu"

%struct.dlist_head = type { %struct.dlist_node }
%struct.dlist_node = type { ptr, ptr }
%struct.AutoVacuumShmemStruct = type { [2 x i32], i32, %struct.dclist_head, %struct.dlist_head, ptr, [256 x %struct.AutoVacuumWorkItem], %struct.pg_atomic_uint32 }
%struct.dclist_head = type { %struct.dlist_head, i32 }
%struct.AutoVacuumWorkItem = type { i32, i8, i8, i32, i32, i32 }
%struct.pg_atomic_uint32 = type { i32 }
%union.LWLockPadded = type { %struct.LWLock, [112 x i8] }
%struct.LWLock = type { i16, %struct.pg_atomic_uint32, %struct.proclist_head }
%struct.proclist_head = type { i32, i32 }
%struct.WorkerInfoData = type { %struct.dlist_node, i32, i32, ptr, i64, %struct.pg_atomic_flag, i8 }
%struct.pg_atomic_flag = type { i8 }

@AutovacuumLauncherPid = dso_local global i32 0, align 4
@AutoVacuumShmem = internal global ptr null, align 8
@MainLWLockArray = external global ptr, align 8
@MyWorkerInfo = internal global ptr null, align 8

; Function Attrs: inlinehint nounwind uwtable
define internal void @dlist_init(ptr noundef %0) #6 {
  %2 = alloca ptr, align 8
  store ptr %0, ptr %2, align 8
  %3 = load ptr, ptr %2, align 8
  %4 = getelementptr inbounds nuw %struct.dlist_head, ptr %3, i32 0, i32 0
  %5 = load ptr, ptr %2, align 8
  %6 = getelementptr inbounds nuw %struct.dlist_head, ptr %5, i32 0, i32 0
  %7 = getelementptr inbounds nuw %struct.dlist_node, ptr %6, i32 0, i32 0
  store ptr %4, ptr %7, align 8
  %8 = load ptr, ptr %2, align 8
  %9 = getelementptr inbounds nuw %struct.dlist_head, ptr %8, i32 0, i32 0
  %10 = getelementptr inbounds nuw %struct.dlist_node, ptr %9, i32 0, i32 1
  store ptr %4, ptr %10, align 8
  ret void
}

; Function Attrs: inlinehint nounwind uwtable
define internal void @dlist_push_head(ptr noundef %0, ptr noundef %1) #6 {
  %3 = alloca ptr, align 8
  %4 = alloca ptr, align 8
  store ptr %0, ptr %3, align 8
  store ptr %1, ptr %4, align 8
  %5 = load ptr, ptr %3, align 8
  %6 = getelementptr inbounds nuw %struct.dlist_head, ptr %5, i32 0, i32 0
  %7 = getelementptr inbounds nuw %struct.dlist_node, ptr %6, i32 0, i32 1
  %8 = load ptr, ptr %7, align 8
  %9 = icmp eq ptr %8, null
  br i1 %9, label %10, label %12

10:                                               ; preds = %2
  %11 = load ptr, ptr %3, align 8
  call void @dlist_init(ptr noundef %11)
  br label %12

12:                                               ; preds = %10, %2
  %13 = load ptr, ptr %3, align 8
  %14 = getelementptr inbounds nuw %struct.dlist_head, ptr %13, i32 0, i32 0
  %15 = getelementptr inbounds nuw %struct.dlist_node, ptr %14, i32 0, i32 1
  %16 = load ptr, ptr %15, align 8
  %17 = load ptr, ptr %4, align 8
  %18 = getelementptr inbounds nuw %struct.dlist_node, ptr %17, i32 0, i32 1
  store ptr %16, ptr %18, align 8
  %19 = load ptr, ptr %3, align 8
  %20 = getelementptr inbounds nuw %struct.dlist_head, ptr %19, i32 0, i32 0
  %21 = load ptr, ptr %4, align 8
  %22 = getelementptr inbounds nuw %struct.dlist_node, ptr %21, i32 0, i32 0
  store ptr %20, ptr %22, align 8
  %23 = load ptr, ptr %4, align 8
  %24 = load ptr, ptr %4, align 8
  %25 = getelementptr inbounds nuw %struct.dlist_node, ptr %24, i32 0, i32 1
  %26 = load ptr, ptr %25, align 8
  %27 = getelementptr inbounds nuw %struct.dlist_node, ptr %26, i32 0, i32 0
  store ptr %23, ptr %27, align 8
  %28 = load ptr, ptr %4, align 8
  %29 = load ptr, ptr %3, align 8
  %30 = getelementptr inbounds nuw %struct.dlist_head, ptr %29, i32 0, i32 0
  %31 = getelementptr inbounds nuw %struct.dlist_node, ptr %30, i32 0, i32 1
  store ptr %28, ptr %31, align 8
  ret void
}

; Function Attrs: inlinehint nounwind uwtable
define internal void @dclist_init(ptr noundef %0) #6 {
  %2 = alloca ptr, align 8
  store ptr %0, ptr %2, align 8
  %3 = load ptr, ptr %2, align 8
  %4 = getelementptr inbounds nuw %struct.dclist_head, ptr %3, i32 0, i32 0
  call void @dlist_init(ptr noundef %4)
  %5 = load ptr, ptr %2, align 8
  %6 = getelementptr inbounds nuw %struct.dclist_head, ptr %5, i32 0, i32 1
  store i32 0, ptr %6, align 8
  ret void
}

; Function Attrs: inlinehint nounwind uwtable
define internal void @pg_atomic_clear_flag_impl(ptr noundef %0) #6 {
  %2 = alloca ptr, align 8
  store ptr %0, ptr %2, align 8
  call void asm sideeffect "", "~{memory},~{dirflag},~{fpsr},~{flags}"() #14, !srcloc !25
  %3 = load ptr, ptr %2, align 8
  %4 = getelementptr inbounds nuw %struct.pg_atomic_flag, ptr %3, i32 0, i32 0
  store volatile i8 0, ptr %4, align 1
  ret void
}

; Function Attrs: inlinehint nounwind uwtable
define internal void @dclist_push_head(ptr noundef %0, ptr noundef %1) #6 {
  %3 = alloca ptr, align 8
  %4 = alloca ptr, align 8
  store ptr %0, ptr %3, align 8
  store ptr %1, ptr %4, align 8
  %5 = load ptr, ptr %3, align 8
  %6 = getelementptr inbounds nuw %struct.dclist_head, ptr %5, i32 0, i32 0
  %7 = getelementptr inbounds nuw %struct.dlist_head, ptr %6, i32 0, i32 0
  %8 = getelementptr inbounds nuw %struct.dlist_node, ptr %7, i32 0, i32 1
  %9 = load ptr, ptr %8, align 8
  %10 = icmp eq ptr %9, null
  br i1 %10, label %11, label %13

11:                                               ; preds = %2
  %12 = load ptr, ptr %3, align 8
  call void @dclist_init(ptr noundef %12)
  br label %13

13:                                               ; preds = %11, %2
  %14 = load ptr, ptr %3, align 8
  %15 = getelementptr inbounds nuw %struct.dclist_head, ptr %14, i32 0, i32 0
  %16 = load ptr, ptr %4, align 8
  call void @dlist_push_head(ptr noundef %15, ptr noundef %16)
  %17 = load ptr, ptr %3, align 8
  %18 = getelementptr inbounds nuw %struct.dclist_head, ptr %17, i32 0, i32 1
  %19 = load i32, ptr %18, align 8
  %20 = add i32 %19, 1
  store i32 %20, ptr %18, align 8
  ret void
}

; Function Attrs: inlinehint nounwind uwtable
define internal void @pg_atomic_clear_flag(ptr noundef %0) #6 {
  %2 = alloca ptr, align 8
  store ptr %0, ptr %2, align 8
  %3 = load ptr, ptr %2, align 8
  call void @pg_atomic_clear_flag_impl(ptr noundef %3)
  ret void
}

; Function Attrs: inlinehint nounwind uwtable
define internal void @dlist_delete(ptr noundef %0) #6 {
  %2 = alloca ptr, align 8
  store ptr %0, ptr %2, align 8
  %3 = load ptr, ptr %2, align 8
  %4 = getelementptr inbounds nuw %struct.dlist_node, ptr %3, i32 0, i32 1
  %5 = load ptr, ptr %4, align 8
  %6 = load ptr, ptr %2, align 8
  %7 = getelementptr inbounds nuw %struct.dlist_node, ptr %6, i32 0, i32 0
  %8 = load ptr, ptr %7, align 8
  %9 = getelementptr inbounds nuw %struct.dlist_node, ptr %8, i32 0, i32 1
  store ptr %5, ptr %9, align 8
  %10 = load ptr, ptr %2, align 8
  %11 = getelementptr inbounds nuw %struct.dlist_node, ptr %10, i32 0, i32 0
  %12 = load ptr, ptr %11, align 8
  %13 = load ptr, ptr %2, align 8
  %14 = getelementptr inbounds nuw %struct.dlist_node, ptr %13, i32 0, i32 1
  %15 = load ptr, ptr %14, align 8
  %16 = getelementptr inbounds nuw %struct.dlist_node, ptr %15, i32 0, i32 0
  store ptr %12, ptr %16, align 8
  ret void
}

; Function Attrs: nounwind uwtable
define internal void @FreeWorkerInfo(i32 noundef %0, i64 noundef %1) #4 {
  %3 = alloca i32, align 4
  %4 = alloca i64, align 8
  store i32 %0, ptr %3, align 4
  store i64 %1, ptr %4, align 8
  %5 = load ptr, ptr @MyWorkerInfo, align 8
  %6 = icmp ne ptr %5, null
  br i1 %6, label %7, label %37

7:                                                ; preds = %2
  %8 = load ptr, ptr @MainLWLockArray, align 8
  %9 = getelementptr inbounds %union.LWLockPadded, ptr %8, i64 22
  %10 = call zeroext i1 @LWLockAcquire(ptr noundef %9, i32 noundef 0)
  %11 = load ptr, ptr @AutoVacuumShmem, align 8
  %12 = getelementptr inbounds nuw %struct.AutoVacuumShmemStruct, ptr %11, i32 0, i32 1
  %13 = load i32, ptr %12, align 8
  store i32 %13, ptr @AutovacuumLauncherPid, align 4
  %14 = load ptr, ptr @MyWorkerInfo, align 8
  %15 = getelementptr inbounds nuw %struct.WorkerInfoData, ptr %14, i32 0, i32 0
  call void @dlist_delete(ptr noundef %15)
  %16 = load ptr, ptr @MyWorkerInfo, align 8
  %17 = getelementptr inbounds nuw %struct.WorkerInfoData, ptr %16, i32 0, i32 1
  store i32 0, ptr %17, align 8
  %18 = load ptr, ptr @MyWorkerInfo, align 8
  %19 = getelementptr inbounds nuw %struct.WorkerInfoData, ptr %18, i32 0, i32 2
  store i32 0, ptr %19, align 4
  %20 = load ptr, ptr @MyWorkerInfo, align 8
  %21 = getelementptr inbounds nuw %struct.WorkerInfoData, ptr %20, i32 0, i32 6
  store i8 0, ptr %21, align 1
  %22 = load ptr, ptr @MyWorkerInfo, align 8
  %23 = getelementptr inbounds nuw %struct.WorkerInfoData, ptr %22, i32 0, i32 3
  store ptr null, ptr %23, align 8
  %24 = load ptr, ptr @MyWorkerInfo, align 8
  %25 = getelementptr inbounds nuw %struct.WorkerInfoData, ptr %24, i32 0, i32 4
  store i64 0, ptr %25, align 8
  %26 = load ptr, ptr @MyWorkerInfo, align 8
  %27 = getelementptr inbounds nuw %struct.WorkerInfoData, ptr %26, i32 0, i32 5
  call void @pg_atomic_clear_flag(ptr noundef %27)
  %28 = load ptr, ptr @AutoVacuumShmem, align 8
  %29 = getelementptr inbounds nuw %struct.AutoVacuumShmemStruct, ptr %28, i32 0, i32 2
  %30 = load ptr, ptr @MyWorkerInfo, align 8
  %31 = getelementptr inbounds nuw %struct.WorkerInfoData, ptr %30, i32 0, i32 0
  call void @dclist_push_head(ptr noundef %29, ptr noundef %31)
  store ptr null, ptr @MyWorkerInfo, align 8
  %32 = load ptr, ptr @AutoVacuumShmem, align 8
  %33 = getelementptr inbounds nuw %struct.AutoVacuumShmemStruct, ptr %32, i32 0, i32 0
  %34 = getelementptr inbounds [2 x i32], ptr %33, i64 0, i64 1
  store i32 1, ptr %34, align 4
  %35 = load ptr, ptr @MainLWLockArray, align 8
  %36 = getelementptr inbounds %union.LWLockPadded, ptr %35, i64 22
  call void @LWLockRelease(ptr noundef %36)
  br label %37

37:                                               ; preds = %7, %2
  ret void
}