; Function Attrs: nounwind uwtable
define internal void @FreeWorkerInfo(i32 %0, i64 %1) #4 {
  %3 = load ptr, ptr @MyWorkerInfo, align 8
  %.not = icmp eq ptr %3, null
  br i1 %.not, label %36, label %4

4:                                                ; preds = %2
  %5 = load ptr, ptr @MainLWLockArray, align 8
  %6 = getelementptr inbounds nuw i8, ptr %5, i64 2816
  %7 = tail call zeroext i1 @LWLockAcquire(ptr noundef nonnull %6, i32 noundef 0) #18
  %8 = load ptr, ptr @AutoVacuumShmem, align 8
  %9 = getelementptr inbounds nuw i8, ptr %8, i64 8
  %10 = load i32, ptr %9, align 8
  store i32 %10, ptr @AutovacuumLauncherPid, align 4
  %11 = load ptr, ptr @MyWorkerInfo, align 8
  %12 = getelementptr inbounds nuw i8, ptr %11, i64 8
  %13 = load ptr, ptr %12, align 8
  %14 = load ptr, ptr %11, align 8
  %15 = getelementptr inbounds nuw i8, ptr %14, i64 8
  store ptr %13, ptr %15, align 8
  %16 = load ptr, ptr %11, align 8
  store ptr %16, ptr %13, align 8
  %17 = getelementptr inbounds nuw i8, ptr %11, i64 16
  %18 = getelementptr inbounds nuw i8, ptr %11, i64 41
  store i8 0, ptr %18, align 1
  %19 = getelementptr inbounds nuw i8, ptr %11, i64 40
  tail call void @llvm.memset.p0.i64(ptr noundef nonnull align 8 dereferenceable(24) %17, i8 0, i64 24, i1 false)
  tail call void asm sideeffect "", "~{memory},~{dirflag},~{fpsr},~{flags}"() #18, !srcloc !14
  store volatile i8 0, ptr %19, align 1
  %20 = load ptr, ptr @AutoVacuumShmem, align 8
  %21 = getelementptr inbounds nuw i8, ptr %20, i64 16
  %22 = load ptr, ptr @MyWorkerInfo, align 8
  %23 = getelementptr inbounds nuw i8, ptr %20, i64 24
  %24 = load ptr, ptr %23, align 8
  %25 = icmp eq ptr %24, null
  br i1 %25, label %26, label %dclist_push_head.exit

26:                                               ; preds = %4
  store ptr %21, ptr %21, align 8
  %27 = getelementptr inbounds nuw i8, ptr %20, i64 32
  store i32 0, ptr %27, align 8
  br label %dclist_push_head.exit

dclist_push_head.exit:                            ; preds = %4, %26
  %28 = phi ptr [ %21, %26 ], [ %24, %4 ]
  %29 = getelementptr inbounds nuw i8, ptr %22, i64 8
  store ptr %28, ptr %29, align 8
  store ptr %21, ptr %22, align 8
  store ptr %22, ptr %28, align 8
  store ptr %22, ptr %23, align 8
  %30 = getelementptr inbounds nuw i8, ptr %20, i64 32
  %31 = load i32, ptr %30, align 8
  %32 = add i32 %31, 1
  store i32 %32, ptr %30, align 8
  store ptr null, ptr @MyWorkerInfo, align 8
  %33 = getelementptr inbounds nuw i8, ptr %20, i64 4
  store i32 1, ptr %33, align 4
  %34 = load ptr, ptr @MainLWLockArray, align 8
  %35 = getelementptr inbounds nuw i8, ptr %34, i64 2816
  tail call void @LWLockRelease(ptr noundef nonnull %35) #18
  br label %36

36:                                               ; preds = %dclist_push_head.exit, %2
  ret void
}